(lp1
(lp2
I7
aI0
aI0
aI0
aa(lp3
I10
aI0
aI0
aI0
aa(lp4
I13
aI0
aI0
aI0
aa(lp5
I7
aI0
aI0
aI0
aa(lp6
I11
aI0
aI0
aI0
aa(lp7
I11
aI0
aI0
aI0
aa(lp8
I0
aI0
aI0
aI0
aa(lp9
I15
aI0
aI0
aI0
aa(lp10
I0
aI0
aI0
aI0
aa(lp11
I7
aI0
aI0
aI0
aa(lp12
I11
aI0
aI0
aI0
aa(lp13
I16
aI0
aI0
aI0
aa(lp14
I10
aI0
aI0
aI0
aa(lp15
I13
aI0
aI0
aI0
aa(lp16
I7
aI0
aI0
aI0
aa(lp17
I7
aI0
aI0
aI0
aa(lp18
I0
aI0
aI0
aI0
aa(lp19
I9
aI0
aI0
aI0
aa(lp20
I14
aI0
aI0
aI0
aa(lp21
I19
aI0
aI0
aI0
aa(lp22
I8
aI0
aI0
aI0
aa(lp23
I0
aI0
aI0
aI0
aa(lp24
I18
aI0
aI0
aI0
aa(lp25
I7
aI0
aI0
aI0
aa(lp26
I7
aI0
aI0
aI0
aa(lp27
I8
aI0
aI0
aI0
aa(lp28
I0
aI0
aI0
aI0
aa(lp29
I26
aI0
aI0
aI0
aa(lp30
I11
aI0
aI0
aI0
aa(lp31
I8
aI0
aI0
aI0
aa(lp32
I0
aI0
aI0
aI0
aa(lp33
I14
aI0
aI0
aI0
aa(lp34
I0
aI0
aI0
aI0
aa(lp35
I0
aI0
aI0
aI0
aa(lp36
I5
aI0
aI0
aI0
aa(lp37
I7
aI0
aI0
aI0
aa(lp38
I0
aI0
aI0
aI0
aa(lp39
I8
aI0
aI0
aI0
aa(lp40
I0
aI0
aI0
aI0
aa(lp41
I15
aI0
aI0
aI0
aa(lp42
I6
aI0
aI0
aI0
aa(lp43
I7
aI0
aI0
aI0
aa(lp44
I15
aI0
aI0
aI0
aa(lp45
I0
aI0
aI0
aI0
aa(lp46
I14
aI0
aI0
aI0
aa(lp47
I0
aI0
aI0
aI0
aa(lp48
I0
aI0
aI0
aI0
aa(lp49
I0
aI0
aI0
aI0
aa(lp50
I14
aI0
aI0
aI0
aa(lp51
I8
aI0
aI0
aI0
aa(lp52
I5
aI0
aI0
aI0
aa(lp53
I0
aI0
aI0
aI0
aa(lp54
I10
aI0
aI0
aI0
aa(lp55
I18
aI0
aI0
aI0
aa(lp56
I16
aI0
aI0
aI0
aa(lp57
I6
aI0
aI0
aI0
aa(lp58
I0
aI0
aI0
aI0
aa(lp59
I6
aI0
aI0
aI0
aa(lp60
I5
aI0
aI0
aI0
aa(lp61
I7
aI0
aI0
aI0
aa(lp62
I9
aI0
aI0
aI0
aa(lp63
I10
aI0
aI0
aI0
aa(lp64
I0
aI0
aI0
aI0
aa(lp65
I6
aI0
aI0
aI0
aa(lp66
I6
aI0
aI0
aI0
aa(lp67
I7
aI0
aI0
aI0
aa(lp68
I4
aI0
aI0
aI0
aa(lp69
I16
aI0
aI0
aI0
aa(lp70
I9
aI0
aI0
aI0
aa(lp71
I14
aI0
aI0
aI0
aa(lp72
I9
aI0
aI0
aI0
aa(lp73
I0
aI0
aI0
aI0
aa(lp74
I0
aI0
aI0
aI0
aa(lp75
I14
aI0
aI0
aI0
aa(lp76
I12
aI0
aI0
aI0
aa(lp77
I1
aI0
aI0
aI0
aa(lp78
I11
aI0
aI0
aI0
aa(lp79
I7
aI0
aI0
aI0
aa(lp80
I16
aI0
aI0
aI0
aa(lp81
I8
aI0
aI0
aI0
aa(lp82
I0
aI0
aI0
aI0
aa(lp83
I13
aI0
aI0
aI0
aa(lp84
I9
aI0
aI0
aI0
aa(lp85
I6
aI0
aI0
aI0
aa(lp86
I0
aI0
aI0
aI0
aa(lp87
I4
aI0
aI0
aI0
aa(lp88
I4
aI0
aI0
aI0
aa(lp89
I8
aI0
aI0
aI0
aa(lp90
I24
aI0
aI0
aI0
aa(lp91
I0
aI0
aI0
aI0
aa(lp92
I0
aI0
aI0
aI0
aa(lp93
I8
aI0
aI0
aI0
aa(lp94
I19
aI0
aI0
aI0
aa(lp95
I9
aI0
aI0
aI0
aa(lp96
I0
aI0
aI0
aI0
aa(lp97
I15
aI0
aI0
aI0
aa(lp98
I14
aI0
aI0
aI0
aa(lp99
I2
aI0
aI0
aI0
aa(lp100
I10
aI0
aI0
aI0
aa(lp101
I7
aI0
aI0
aI0
aa(lp102
I16
aI0
aI0
aI0
aa(lp103
I0
aI0
aI0
aI0
aa(lp104
I9
aI0
aI0
aI0
aa(lp105
I9
aI0
aI0
aI0
aa(lp106
I13
aI0
aI0
aI0
aa(lp107
I9
aI0
aI0
aI0
aa(lp108
I8
aI0
aI0
aI0
aa(lp109
I26
aI0
aI0
aI0
aa(lp110
I8
aI0
aI0
aI0
aa(lp111
I0
aI0
aI0
aI0
aa(lp112
I0
aI0
aI0
aI0
aa(lp113
I0
aI0
aI0
aI0
aa(lp114
I12
aI0
aI0
aI0
aa(lp115
I9
aI0
aI0
aI0
aa(lp116
I10
aI0
aI0
aI0
aa(lp117
I10
aI0
aI0
aI0
aa(lp118
I0
aI0
aI0
aI0
aa(lp119
I13
aI0
aI0
aI0
aa(lp120
I5
aI0
aI0
aI0
aa(lp121
I23
aI0
aI0
aI0
aa(lp122
I5
aI0
aI0
aI0
aa(lp123
I50
aI0
aI0
aI0
aa(lp124
I17
aI0
aI0
aI0
aa(lp125
I19
aI0
aI0
aI0
aa(lp126
I0
aI0
aI0
aI0
aa(lp127
I4
aI0
aI0
aI0
aa(lp128
I0
aI0
aI0
aI0
aa(lp129
I16
aI0
aI0
aI0
aa(lp130
I10
aI0
aI0
aI0
aa(lp131
I0
aI0
aI0
aI0
aa(lp132
I0
aI0
aI0
aI0
aa(lp133
I0
aI0
aI0
aI0
aa(lp134
I12
aI0
aI0
aI0
aa(lp135
I7
aI0
aI0
aI0
aa(lp136
I23
aI0
aI0
aI0
aa(lp137
I12
aI0
aI0
aI0
aa(lp138
I0
aI0
aI0
aI0
aa(lp139
I3
aI0
aI0
aI0
aa(lp140
I4
aI0
aI0
aI0
aa(lp141
I13
aI0
aI0
aI0
aa(lp142
I0
aI0
aI0
aI0
aa(lp143
I8
aI0
aI0
aI0
aa(lp144
I0
aI0
aI0
aI0
aa(lp145
I0
aI0
aI0
aI0
aa(lp146
I0
aI0
aI0
aI0
aa(lp147
I10
aI0
aI0
aI0
aa(lp148
I10
aI0
aI0
aI0
aa(lp149
I12
aI0
aI0
aI0
aa(lp150
I17
aI0
aI0
aI0
aa(lp151
I3
aI0
aI0
aI0
aa(lp152
I10
aI0
aI0
aI0
aa(lp153
I6
aI0
aI0
aI0
aa(lp154
I16
aI0
aI0
aI0
aa(lp155
I13
aI0
aI0
aI0
aa(lp156
I6
aI0
aI0
aI0
aa(lp157
I2
aI0
aI0
aI0
aa(lp158
I6
aI0
aI0
aI0
aa(lp159
I0
aI0
aI0
aI0
aa(lp160
I8
aI0
aI0
aI0
aa(lp161
I0
aI0
aI0
aI0
aa(lp162
I3
aI0
aI0
aI0
aa(lp163
I0
aI0
aI0
aI0
aa(lp164
I6
aI0
aI0
aI0
aa(lp165
I0
aI0
aI0
aI0
aa(lp166
I7
aI0
aI0
aI0
aa(lp167
I0
aI0
aI0
aI0
aa(lp168
I2
aI0
aI0
aI0
aa(lp169
I11
aI0
aI0
aI0
aa(lp170
I15
aI0
aI0
aI0
aa(lp171
I4
aI0
aI0
aI0
aa(lp172
I6
aI0
aI0
aI0
aa(lp173
I0
aI0
aI0
aI0
aa(lp174
I21
aI0
aI0
aI0
aa(lp175
I9
aI0
aI0
aI0
aa(lp176
I11
aI0
aI0
aI0
aa(lp177
I0
aI0
aI0
aI0
aa(lp178
I5
aI0
aI0
aI0
aa(lp179
I4
aI0
aI0
aI0
aa(lp180
I0
aI0
aI0
aI0
aa(lp181
I9
aI0
aI0
aI0
aa(lp182
I0
aI0
aI0
aI0
aa(lp183
I9
aI0
aI0
aI0
aa(lp184
I13
aI0
aI0
aI0
aa(lp185
I0
aI0
aI0
aI0
aa(lp186
I10
aI0
aI0
aI0
aa(lp187
I0
aI0
aI0
aI0
aa(lp188
I0
aI0
aI0
aI0
aa(lp189
I0
aI0
aI0
aI0
aa(lp190
I16
aI0
aI0
aI0
aa(lp191
I0
aI0
aI0
aI0
aa(lp192
I11
aI0
aI0
aI0
aa(lp193
I12
aI0
aI0
aI0
aa(lp194
I8
aI0
aI0
aI0
aa(lp195
I0
aI0
aI0
aI0
aa(lp196
I8
aI0
aI0
aI0
aa(lp197
I0
aI0
aI0
aI0
aa(lp198
I8
aI0
aI0
aI0
aa(lp199
I11
aI0
aI0
aI0
aa(lp200
I12
aI0
aI0
aI0
aa(lp201
I5
aI0
aI0
aI0
aa(lp202
I6
aI0
aI0
aI0
aa(lp203
I0
aI0
aI0
aI0
aa(lp204
I0
aI0
aI0
aI0
aa(lp205
I6
aI0
aI0
aI0
aa(lp206
I12
aI0
aI0
aI0
aa(lp207
I3
aI0
aI0
aI0
aa(lp208
I19
aI0
aI0
aI0
aa(lp209
I13
aI0
aI0
aI0
aa(lp210
I7
aI0
aI0
aI0
aa.