(lp1
(lp2
I17
aI0
aI0
aI0
aa(lp3
I3
aI0
aI0
aI0
aa(lp4
I6
aI0
aI0
aI0
aa(lp5
I6
aI0
aI0
aI0
aa(lp6
I6
aI0
aI0
aI0
aa(lp7
I16
aI0
aI0
aI0
aa(lp8
I6
aI0
aI0
aI0
aa(lp9
I0
aI0
aI0
aI0
aa(lp10
I15
aI0
aI0
aI0
aa(lp11
I0
aI0
aI0
aI0
aa(lp12
I7
aI0
aI0
aI0
aa(lp13
I4
aI0
aI0
aI0
aa(lp14
I15
aI0
aI0
aI0
aa(lp15
I6
aI0
aI0
aI0
aa(lp16
I3
aI0
aI0
aI0
aa(lp17
I25
aI0
aI0
aI0
aa(lp18
I4
aI0
aI0
aI0
aa(lp19
I0
aI0
aI0
aI0
aa(lp20
I19
aI0
aI0
aI0
aa(lp21
I25
aI0
aI0
aI0
aa(lp22
I7
aI0
aI0
aI0
aa(lp23
I17
aI0
aI0
aI0
aa(lp24
I24
aI0
aI0
aI0
aa(lp25
I0
aI0
aI0
aI0
aa(lp26
I12
aI0
aI0
aI0
aa(lp27
I8
aI0
aI0
aI0
aa(lp28
I5
aI0
aI0
aI0
aa(lp29
I3
aI0
aI0
aI0
aa(lp30
I13
aI0
aI0
aI0
aa(lp31
I15
aI0
aI0
aI0
aa(lp32
I5
aI0
aI0
aI0
aa(lp33
I4
aI0
aI0
aI0
aa(lp34
I8
aI0
aI0
aI0
aa(lp35
I17
aI0
aI0
aI0
aa(lp36
I0
aI0
aI0
aI0
aa(lp37
I26
aI0
aI0
aI0
aa(lp38
I8
aI0
aI0
aI0
aa(lp39
I14
aI0
aI0
aI0
aa(lp40
I0
aI0
aI0
aI0
aa(lp41
I15
aI0
aI0
aI0
aa(lp42
I8
aI0
aI0
aI0
aa(lp43
I7
aI0
aI0
aI0
aa(lp44
I12
aI0
aI0
aI0
aa(lp45
I22
aI0
aI0
aI0
aa(lp46
I9
aI0
aI0
aI0
aa(lp47
I9
aI0
aI0
aI0
aa(lp48
I7
aI0
aI0
aI0
aa(lp49
I5
aI0
aI0
aI0
aa(lp50
I11
aI0
aI0
aI0
aa(lp51
I0
aI0
aI0
aI0
aa(lp52
I11
aI0
aI0
aI0
aa(lp53
I5
aI0
aI0
aI0
aa(lp54
I0
aI0
aI0
aI0
aa(lp55
I8
aI0
aI0
aI0
aa(lp56
I16
aI0
aI0
aI0
aa(lp57
I0
aI0
aI0
aI0
aa(lp58
I3
aI0
aI0
aI0
aa(lp59
I0
aI0
aI0
aI0
aa(lp60
I8
aI0
aI0
aI0
aa(lp61
I20
aI0
aI0
aI0
aa(lp62
I14
aI0
aI0
aI0
aa(lp63
I7
aI0
aI0
aI0
aa(lp64
I0
aI0
aI0
aI0
aa(lp65
I7
aI0
aI0
aI0
aa(lp66
I9
aI0
aI0
aI0
aa(lp67
I11
aI0
aI0
aI0
aa(lp68
I10
aI0
aI0
aI0
aa(lp69
I6
aI0
aI0
aI0
aa(lp70
I7
aI0
aI0
aI0
aa(lp71
I7
aI0
aI0
aI0
aa(lp72
I12
aI0
aI0
aI0
aa(lp73
I8
aI0
aI0
aI0
aa(lp74
I6
aI0
aI0
aI0
aa(lp75
I5
aI0
aI0
aI0
aa(lp76
I5
aI0
aI0
aI0
aa(lp77
I6
aI0
aI0
aI0
aa(lp78
I6
aI0
aI0
aI0
aa(lp79
I8
aI0
aI0
aI0
aa(lp80
I7
aI0
aI0
aI0
aa(lp81
I7
aI0
aI0
aI0
aa(lp82
I5
aI0
aI0
aI0
aa(lp83
I0
aI0
aI0
aI0
aa(lp84
I9
aI0
aI0
aI0
aa(lp85
I0
aI0
aI0
aI0
aa(lp86
I7
aI0
aI0
aI0
aa(lp87
I13
aI0
aI0
aI0
aa(lp88
I8
aI0
aI0
aI0
aa(lp89
I3
aI0
aI0
aI0
aa(lp90
I17
aI0
aI0
aI0
aa(lp91
I16
aI0
aI0
aI0
aa(lp92
I7
aI0
aI0
aI0
aa(lp93
I0
aI0
aI0
aI0
aa(lp94
I18
aI0
aI0
aI0
aa(lp95
I19
aI0
aI0
aI0
aa(lp96
I13
aI0
aI0
aI0
aa(lp97
I11
aI0
aI0
aI0
aa(lp98
I9
aI0
aI0
aI0
aa(lp99
I5
aI0
aI0
aI0
aa(lp100
I0
aI0
aI0
aI0
aa(lp101
I6
aI0
aI0
aI0
aa(lp102
I20
aI0
aI0
aI0
aa(lp103
I2
aI0
aI0
aI0
aa(lp104
I11
aI0
aI0
aI0
aa(lp105
I6
aI0
aI0
aI0
aa(lp106
I9
aI0
aI0
aI0
aa(lp107
I8
aI0
aI0
aI0
aa(lp108
I19
aI0
aI0
aI0
aa(lp109
I6
aI0
aI0
aI0
aa(lp110
I16
aI0
aI0
aI0
aa(lp111
I10
aI0
aI0
aI0
aa(lp112
I8
aI0
aI0
aI0
aa(lp113
I4
aI0
aI0
aI0
aa(lp114
I5
aI0
aI0
aI0
aa(lp115
I27
aI0
aI0
aI0
aa(lp116
I10
aI0
aI0
aI0
aa(lp117
I28
aI0
aI0
aI0
aa(lp118
I4
aI0
aI0
aI0
aa(lp119
I11
aI0
aI0
aI0
aa(lp120
I31
aI0
aI0
aI0
aa(lp121
I6
aI0
aI0
aI0
aa(lp122
I7
aI0
aI0
aI0
aa(lp123
I1
aI0
aI0
aI0
aa(lp124
I12
aI0
aI0
aI0
aa(lp125
I7
aI0
aI0
aI0
aa(lp126
I11
aI0
aI0
aI0
aa(lp127
I14
aI0
aI0
aI0
aa(lp128
I22
aI0
aI0
aI0
aa(lp129
I1
aI0
aI0
aI0
aa(lp130
I6
aI0
aI0
aI0
aa(lp131
I6
aI0
aI0
aI0
aa(lp132
I8
aI0
aI0
aI0
aa(lp133
I19
aI0
aI0
aI0
aa(lp134
I17
aI0
aI0
aI0
aa(lp135
I4
aI0
aI0
aI0
aa(lp136
I8
aI0
aI0
aI0
aa(lp137
I14
aI0
aI0
aI0
aa(lp138
I9
aI0
aI0
aI0
aa(lp139
I8
aI0
aI0
aI0
aa(lp140
I12
aI0
aI0
aI0
aa(lp141
I2
aI0
aI0
aI0
aa(lp142
I11
aI0
aI0
aI0
aa(lp143
I14
aI0
aI0
aI0
aa(lp144
I9
aI0
aI0
aI0
aa(lp145
I8
aI0
aI0
aI0
aa(lp146
I22
aI0
aI0
aI0
aa(lp147
I15
aI0
aI0
aI0
aa(lp148
I9
aI0
aI0
aI0
aa(lp149
I9
aI0
aI0
aI0
aa(lp150
I19
aI0
aI0
aI0
aa(lp151
I3
aI0
aI0
aI0
aa(lp152
I5
aI0
aI0
aI0
aa(lp153
I7
aI0
aI0
aI0
aa(lp154
I10
aI0
aI0
aI0
aa(lp155
I0
aI0
aI0
aI0
aa(lp156
I6
aI0
aI0
aI0
aa(lp157
I2
aI0
aI0
aI0
aa(lp158
I10
aI0
aI0
aI0
aa(lp159
I10
aI0
aI0
aI0
aa(lp160
I20
aI0
aI0
aI0
aa(lp161
I12
aI0
aI0
aI0
aa(lp162
I9
aI0
aI0
aI0
aa(lp163
I11
aI0
aI0
aI0
aa(lp164
I16
aI0
aI0
aI0
aa(lp165
I8
aI0
aI0
aI0
aa(lp166
I19
aI0
aI0
aI0
aa(lp167
I6
aI0
aI0
aI0
aa(lp168
I14
aI0
aI0
aI0
aa(lp169
I9
aI0
aI0
aI0
aa(lp170
I13
aI0
aI0
aI0
aa(lp171
I17
aI0
aI0
aI0
aa(lp172
I4
aI0
aI0
aI0
aa(lp173
I5
aI0
aI0
aI0
aa(lp174
I4
aI0
aI0
aI0
aa(lp175
I9
aI0
aI0
aI0
aa(lp176
I19
aI0
aI0
aI0
aa(lp177
I7
aI0
aI0
aI0
aa(lp178
I5
aI0
aI0
aI0
aa(lp179
I10
aI0
aI0
aI0
aa(lp180
I6
aI0
aI0
aI0
aa(lp181
I12
aI0
aI0
aI0
aa(lp182
I16
aI0
aI0
aI0
aa(lp183
I6
aI0
aI0
aI0
aa(lp184
I9
aI0
aI0
aI0
aa(lp185
I11
aI0
aI0
aI0
aa(lp186
I9
aI0
aI0
aI0
aa(lp187
I2
aI0
aI0
aI0
aa(lp188
I4
aI0
aI0
aI0
aa(lp189
I4
aI0
aI0
aI0
aa(lp190
I4
aI0
aI0
aI0
aa(lp191
I0
aI0
aI0
aI0
aa(lp192
I20
aI0
aI0
aI0
aa(lp193
I9
aI0
aI0
aI0
aa(lp194
I2
aI0
aI0
aI0
aa(lp195
I7
aI0
aI0
aI0
aa(lp196
I0
aI0
aI0
aI0
aa(lp197
I13
aI0
aI0
aI0
aa(lp198
I8
aI0
aI0
aI0
aa(lp199
I8
aI0
aI0
aI0
aa(lp200
I12
aI0
aI0
aI0
aa(lp201
I10
aI0
aI0
aI0
aa(lp202
I26
aI0
aI0
aI0
aa(lp203
I2
aI0
aI0
aI0
aa(lp204
I32
aI0
aI0
aI0
aa(lp205
I19
aI0
aI0
aI0
aa(lp206
I5
aI0
aI0
aI0
aa(lp207
I6
aI0
aI0
aI0
aa(lp208
I7
aI0
aI0
aI0
aa(lp209
I7
aI0
aI0
aI0
aa(lp210
I2
aI0
aI0
aI0
aa.